target datalayout = "e-m:e-p270:32:32-p271:32:32-p272:64:64-i64:64-i128:128-f80:128-n8:16:32:64-S128"
target triple = "x86_64-pc-linux-gnu"

%struct.SDL_Environment = type { ptr, ptr }

@SDL_environment = internal global ptr null, align 8

; Function Attrs: nounwind uwtable
define hidden void @SDL_DestroyEnvironment_REAL(ptr noundef %0) #0 {
  %2 = alloca ptr, align 8
  store ptr %0, ptr %2, align 8
  %3 = load ptr, ptr %2, align 8
  %4 = icmp ne ptr %3, null
  br i1 %4, label %5, label %9

5:                                                ; preds = %1
  %6 = load ptr, ptr %2, align 8
  %7 = load ptr, ptr @SDL_environment, align 8
  %8 = icmp eq ptr %6, %7
  br i1 %8, label %9, label %10

9:                                                ; preds = %5, %1
  br label %18

10:                                               ; preds = %5
  %11 = load ptr, ptr %2, align 8
  %12 = getelementptr inbounds nuw %struct.SDL_Environment, ptr %11, i32 0, i32 0
  %13 = load ptr, ptr %12, align 8
  call void @SDL_DestroyMutex_REAL(ptr noundef %13)
  %14 = load ptr, ptr %2, align 8
  %15 = getelementptr inbounds nuw %struct.SDL_Environment, ptr %14, i32 0, i32 1
  %16 = load ptr, ptr %15, align 8
  call void @SDL_DestroyHashTable(ptr noundef %16)
  %17 = load ptr, ptr %2, align 8
  call void @SDL_free_REAL(ptr noundef %17)
  br label %18

18:                                               ; preds = %10, %9
  ret void
}

; Function Attrs: nounwind uwtable
define hidden void @SDL_QuitEnvironment() #0 {
  %1 = alloca ptr, align 8
  call void @llvm.lifetime.start.p0(i64 8, ptr %1) #7
  %2 = load ptr, ptr @SDL_environment, align 8
  store ptr %2, ptr %1, align 8
  %3 = load ptr, ptr %1, align 8
  %4 = icmp ne ptr %3, null
  br i1 %4, label %5, label %7

5:                                                ; preds = %0
  store ptr null, ptr @SDL_environment, align 8
  %6 = load ptr, ptr %1, align 8
  call void @SDL_DestroyEnvironment_REAL(ptr noundef %6)
  br label %7

7:                                                ; preds = %5, %0
  call void @llvm.lifetime.end.p0(i64 8, ptr %1) #7
  ret void
}