; Function Attrs: nounwind uwtable
define hidden void @SDL_QuitEnvironment() local_unnamed_addr #0 {
  %1 = load ptr, ptr @SDL_environment, align 8
  %.not = icmp eq ptr %1, null
  br i1 %.not, label %5, label %SDL_DestroyEnvironment_REAL.exit

SDL_DestroyEnvironment_REAL.exit:                 ; preds = %0
  store ptr null, ptr @SDL_environment, align 8
  %2 = load ptr, ptr %1, align 8
  tail call void @SDL_DestroyMutex_REAL(ptr noundef %2) #11
  %3 = getelementptr inbounds nuw i8, ptr %1, i64 8
  %4 = load ptr, ptr %3, align 8
  tail call void @SDL_DestroyHashTable(ptr noundef %4) #11
  tail call void @SDL_free_REAL(ptr noundef nonnull %1) #11
  br label %5

5:                                                ; preds = %SDL_DestroyEnvironment_REAL.exit, %0
  ret void
}